target datalayout = "e-m:e-p270:32:32-p271:32:32-p272:64:64-i64:64-i128:128-f80:128-n8:16:32:64-S128"
target triple = "x86_64-pc-linux-gnu"

%struct.UList = type { ptr, ptr, ptr, i32 }
%struct.UEnumeration = type { ptr, ptr, ptr, ptr, ptr, ptr, ptr }

; Function Attrs: mustprogress nounwind uwtable
define i32 @ulist_getListSize_77(ptr noundef %0) #5 {
  %2 = alloca i32, align 4
  %3 = alloca ptr, align 8
  store ptr %0, ptr %3, align 8, !tbaa !7
  %4 = load ptr, ptr %3, align 8, !tbaa !7
  %5 = icmp ne ptr %4, null
  br i1 %5, label %6, label %10

6:                                                ; preds = %1
  %7 = load ptr, ptr %3, align 8, !tbaa !7
  %8 = getelementptr inbounds nuw %struct.UList, ptr %7, i32 0, i32 3
  %9 = load i32, ptr %8, align 8, !tbaa !17
  store i32 %9, ptr %2, align 4
  br label %11

10:                                               ; preds = %1
  store i32 -1, ptr %2, align 4
  br label %11

11:                                               ; preds = %10, %6
  %12 = load i32, ptr %2, align 4
  ret i32 %12
}

; Function Attrs: inlinehint mustprogress nounwind uwtable
define internal noundef signext i8 @_ZL9U_FAILURE10UErrorCode(i32 noundef %0) #2 {
  %2 = alloca i32, align 4
  store i32 %0, ptr %2, align 4, !tbaa !9
  %3 = load i32, ptr %2, align 4, !tbaa !9
  %4 = icmp sgt i32 %3, 0
  %5 = zext i1 %4 to i8
  ret i8 %5
}

; Function Attrs: mustprogress uwtable
define i32 @ulist_count_keyword_values_77(ptr noundef %0, ptr noundef %1) #0 {
  %3 = alloca i32, align 4
  %4 = alloca ptr, align 8
  %5 = alloca ptr, align 8
  store ptr %0, ptr %4, align 8, !tbaa !32
  store ptr %1, ptr %5, align 8, !tbaa !3
  %6 = load ptr, ptr %5, align 8, !tbaa !3
  %7 = load i32, ptr %6, align 4, !tbaa !9
  %8 = call noundef signext i8 @_ZL9U_FAILURE10UErrorCode(i32 noundef %7)
  %9 = icmp ne i8 %8, 0
  br i1 %9, label %10, label %11

10:                                               ; preds = %2
  store i32 -1, ptr %3, align 4
  br label %16

11:                                               ; preds = %2
  %12 = load ptr, ptr %4, align 8, !tbaa !32
  %13 = getelementptr inbounds nuw %struct.UEnumeration, ptr %12, i32 0, i32 1
  %14 = load ptr, ptr %13, align 8, !tbaa !34
  %15 = call i32 @ulist_getListSize_77(ptr noundef %14)
  store i32 %15, ptr %3, align 4
  br label %16

16:                                               ; preds = %11, %10
  %17 = load i32, ptr %3, align 4
  ret i32 %17
}